target datalayout = "e-m:e-p270:32:32-p271:32:32-p272:64:64-i64:64-i128:128-f80:128-n8:16:32:64-S128"
target triple = "x86_64-pc-linux-gnu"

%struct.ssl_st = type { i32, i16, i16, ptr, ptr, ptr, ptr, ptr, i32, i32, ptr, ptr, i32, i32, ptr, ptr, ptr, ptr, ptr, ptr, ptr, ptr, i32, i32, [32 x i8], ptr, ptr, ptr, ptr, ptr, ptr, ptr, i64, %struct.crypto_ex_data_st, ptr, i32, i32, i32, i32, i16, ptr, i32, i64, ptr, ptr, ptr, ptr, ptr, ptr, i32, i32, ptr, ptr, i8, i8, i32 }
%struct.crypto_ex_data_st = type { ptr }
%struct.cert_st = type { ptr, ptr, ptr, ptr, i32, i32, ptr, ptr, ptr, i64, ptr, i64, ptr, ptr, ptr }
%struct.ssl_private_key_method_st = type { ptr, ptr, ptr, ptr, ptr, ptr }

@.str = private unnamed_addr constant [117 x i8] c"generated/home/dtcxzyw/WorkSpace/Projects/compilers/llvm-opt-benchmark/bench/libquic/libquic/boringssl/ssl/ssl_rsa.c\00", align 1

; Function Attrs: nounwind uwtable
define hidden i32 @ssl_private_key_decrypt(ptr noundef %0, ptr noundef %1, ptr noundef %2, i64 noundef %3, ptr noundef %4, i64 noundef %5) #0 {
  %7 = alloca i32, align 4
  %8 = alloca ptr, align 8
  %9 = alloca ptr, align 8
  %10 = alloca ptr, align 8
  %11 = alloca i64, align 8
  %12 = alloca ptr, align 8
  %13 = alloca i64, align 8
  %14 = alloca ptr, align 8
  %15 = alloca i32, align 4
  store ptr %0, ptr %8, align 8, !tbaa !6
  store ptr %1, ptr %9, align 8, !tbaa !53
  store ptr %2, ptr %10, align 8, !tbaa !71
  store i64 %3, ptr %11, align 8, !tbaa !54
  store ptr %4, ptr %12, align 8, !tbaa !53
  store i64 %5, ptr %13, align 8, !tbaa !54
  %16 = load ptr, ptr %8, align 8, !tbaa !6
  %17 = getelementptr inbounds nuw %struct.ssl_st, ptr %16, i32 0, i32 21
  %18 = load ptr, ptr %17, align 8, !tbaa !13
  %19 = getelementptr inbounds nuw %struct.cert_st, ptr %18, i32 0, i32 3
  %20 = load ptr, ptr %19, align 8, !tbaa !64
  %21 = icmp ne ptr %20, null
  br i1 %21, label %22, label %37

22:                                               ; preds = %6
  %23 = load ptr, ptr %8, align 8, !tbaa !6
  %24 = getelementptr inbounds nuw %struct.ssl_st, ptr %23, i32 0, i32 21
  %25 = load ptr, ptr %24, align 8, !tbaa !13
  %26 = getelementptr inbounds nuw %struct.cert_st, ptr %25, i32 0, i32 3
  %27 = load ptr, ptr %26, align 8, !tbaa !64
  %28 = getelementptr inbounds nuw %struct.ssl_private_key_method_st, ptr %27, i32 0, i32 4
  %29 = load ptr, ptr %28, align 8, !tbaa !79
  %30 = load ptr, ptr %8, align 8, !tbaa !6
  %31 = load ptr, ptr %9, align 8, !tbaa !53
  %32 = load ptr, ptr %10, align 8, !tbaa !71
  %33 = load i64, ptr %11, align 8, !tbaa !54
  %34 = load ptr, ptr %12, align 8, !tbaa !53
  %35 = load i64, ptr %13, align 8, !tbaa !54
  %36 = call i32 %29(ptr noundef %30, ptr noundef %31, ptr noundef %32, i64 noundef %33, ptr noundef %34, i64 noundef %35)
  store i32 %36, ptr %7, align 4
  br label %59

37:                                               ; preds = %6
  call void @llvm.lifetime.start.p0(i64 8, ptr %14) #4
  %38 = load ptr, ptr %8, align 8, !tbaa !6
  %39 = getelementptr inbounds nuw %struct.ssl_st, ptr %38, i32 0, i32 21
  %40 = load ptr, ptr %39, align 8, !tbaa !13
  %41 = getelementptr inbounds nuw %struct.cert_st, ptr %40, i32 0, i32 1
  %42 = load ptr, ptr %41, align 8, !tbaa !44
  %43 = call ptr @EVP_PKEY_get0_RSA(ptr noundef %42)
  store ptr %43, ptr %14, align 8, !tbaa !56
  %44 = load ptr, ptr %14, align 8, !tbaa !56
  %45 = icmp eq ptr %44, null
  br i1 %45, label %46, label %47

46:                                               ; preds = %37
  call void @ERR_put_error(i32 noundef 16, i32 noundef 0, i32 noundef 68, ptr noundef @.str, i32 noundef 412)
  store i32 2, ptr %7, align 4
  store i32 1, ptr %15, align 4
  br label %58

47:                                               ; preds = %37
  %48 = load ptr, ptr %14, align 8, !tbaa !56
  %49 = load ptr, ptr %10, align 8, !tbaa !71
  %50 = load ptr, ptr %9, align 8, !tbaa !53
  %51 = load i64, ptr %11, align 8, !tbaa !54
  %52 = load ptr, ptr %12, align 8, !tbaa !53
  %53 = load i64, ptr %13, align 8, !tbaa !54
  %54 = call i32 @RSA_decrypt(ptr noundef %48, ptr noundef %49, ptr noundef %50, i64 noundef %51, ptr noundef %52, i64 noundef %53, i32 noundef 3)
  %55 = icmp ne i32 %54, 0
  br i1 %55, label %57, label %56

56:                                               ; preds = %47
  store i32 2, ptr %7, align 4
  store i32 1, ptr %15, align 4
  br label %58

57:                                               ; preds = %47
  store i32 0, ptr %7, align 4
  store i32 1, ptr %15, align 4
  br label %58

58:                                               ; preds = %57, %56, %46
  call void @llvm.lifetime.end.p0(i64 8, ptr %14) #4
  br label %59

59:                                               ; preds = %58, %22
  %60 = load i32, ptr %7, align 4
  ret i32 %60
}