; Function Attrs: nounwind uwtable
define hidden i32 @ssl_private_key_decrypt(ptr noundef %0, ptr noundef %1, ptr noundef %2, i64 noundef %3, ptr noundef %4, i64 noundef %5) local_unnamed_addr #0 {
  %7 = getelementptr inbounds nuw i8, ptr %0, i64 136
  %8 = load ptr, ptr %7, align 8, !tbaa !6
  %9 = getelementptr inbounds nuw i8, ptr %8, i64 24
  %10 = load ptr, ptr %9, align 8, !tbaa !53
  %.not = icmp eq ptr %10, null
  br i1 %.not, label %15, label %11

11:                                               ; preds = %6
  %12 = getelementptr inbounds nuw i8, ptr %10, i64 32
  %13 = load ptr, ptr %12, align 8, !tbaa !62
  %14 = tail call i32 %13(ptr noundef nonnull %0, ptr noundef %1, ptr noundef %2, i64 noundef %3, ptr noundef %4, i64 noundef %5) #6
  br label %23

15:                                               ; preds = %6
  %16 = getelementptr inbounds nuw i8, ptr %8, i64 8
  %17 = load ptr, ptr %16, align 8, !tbaa !38
  %18 = tail call ptr @EVP_PKEY_get0_RSA(ptr noundef %17) #6
  %19 = icmp eq ptr %18, null
  br i1 %19, label %20, label %21

20:                                               ; preds = %15
  tail call void @ERR_put_error(i32 noundef 16, i32 noundef 0, i32 noundef 68, ptr noundef nonnull @.str, i32 noundef 412) #6
  br label %23

21:                                               ; preds = %15
  %22 = tail call i32 @RSA_decrypt(ptr noundef nonnull %18, ptr noundef %2, ptr noundef %1, i64 noundef %3, ptr noundef %4, i64 noundef %5, i32 noundef 3) #6
  %.not18 = icmp eq i32 %22, 0
  %. = select i1 %.not18, i32 2, i32 0
  br label %23

23:                                               ; preds = %20, %21, %11
  %.0 = phi i32 [ %14, %11 ], [ 2, %20 ], [ %., %21 ]
  ret i32 %.0
}